(dp0
S'\x83'
p1
I160
sS'\x87'
p2
I134
sS'\x08'
p3
I165
sS'\x8b'
p4
I191
sS'\x8f'
p5
I156
sS'\x93'
p6
I154
sS'\x97'
p7
I157
sS'\x9b'
p8
I166
sS'\x9f'
p9
I116
sS' '
p10
I69
sS'\xa3'
p11
I97
sS'$'
p12
I71
sS'\xa7'
p13
I99
sS'('
p14
I82
sS'\xab'
p15
I161
sS','
p16
I74
sS'\xaf'
p17
I167
sS'0'
p18
I12
sS'\xb3'
p19
I113
sS'4'
p20
I21
sS'\xb7'
p21
I132
sS'8'
p22
I22
sS'\xbb'
p23
I140
sS'<'
p24
I81
sS'\xbf'
p25
I129
sS'@'
p26
I66
sS'\xc3'
p27
I85
sS'D'
p28
I49
sS'H'
p29
I52
sS'\xcb'
p30
I183
sS'L'
p31
I42
sS'\xcf'
p32
I162
sS'P'
p33
I57
sS'T'
p34
I47
sS'\xd7'
p35
I122
sS'X'
p36
I70
sS'\\'
p37
I88
sS'\xdf'
p38
I192
sS'`'
p39
I1
sS'\xe3'
p40
I178
sS'd'
p41
I20
sS'\xe7'
p42
I147
sS'h'
p43
I23
sS'l'
p44
I9
sS'\xef'
p45
I193
sS'p'
p46
I29
sS't'
p47
I13
sS'\xf7'
p48
I194
sS'x'
p49
I37
sS'|'
p50
I101
sS'\x80'
p51
I141
sS'\x84'
p52
I142
sS'\x88'
p53
I155
sS'\x8c'
p54
I168
sS'\x90'
p55
I184
sS'\x94'
p56
I174
sS'\x98'
p57
I179
sS'\x9c'
p58
I150
sS'\xa0'
p59
I110
sS'#'
p60
I68
sS'\xa4'
p61
I111
sS"'"
p62
I83
sS'\xa8'
p63
I117
sS'+'
p64
I77
sS'\xac'
p65
I125
sS'/'
p66
I72
sS'\xb0'
p67
I121
sS'3'
p68
I15
sS'\xb4'
p69
I107
sS'7'
p70
I27
sS'\xb8'
p71
I108
sS';'
p72
I79
sS'\xbc'
p73
I105
sS'?'
p74
I76
sS'\xc0'
p75
I169
sS'C'
p76
I48
sS'\xc4'
p77
I102
sS'G'
p78
I58
sS'\xc8'
p79
I185
sS'K'
p80
I54
sS'O'
p81
I40
sS'\xd0'
p82
I170
sS'S'
p83
I44
sS'W'
p84
I65
sS'\xd8'
p85
I136
sS'['
p86
I90
sS'_'
p87
I60
sS'\xe0'
p88
I109
sS'c'
p89
I16
sS'\xe4'
p90
I151
sS'g'
p91
I30
sS'\xe8'
p92
I195
sS'k'
p93
I28
sS'\xec'
p94
I186
sS'o'
p95
I6
sS'\xf0'
p96
I187
sS's'
p97
I10
sS'w'
p98
I34
sS'\xf8'
p99
I163
sS'{'
p100
I96
sS'unk'
p101
I0
sS'\xfc'
p102
I180
sS'\x81'
p103
I138
sS'\x85'
p104
I128
sS'\x89'
p105
I158
sS'\x8d'
p106
I126
sS'\x91'
p107
I106
sS'\x95'
p108
I148
sS'\x99'
p109
I118
sS'\x1a'
p110
I196
sS'\x9d'
p111
I197
sS'\xa1'
p112
I103
sS'"'
p113
I93
sS'\xa5'
p114
I115
sS'&'
p115
I75
sS'\xa9'
p116
I100
sS'*'
p117
I61
sS'\xad'
p118
I123
sS'.'
p119
I53
sS'\xb1'
p120
I92
sS'2'
p121
I11
sS'\xb5'
p122
I149
sS'6'
p123
I25
sS'\xb9'
p124
I124
sS':'
p125
I91
sS'\xbd'
p126
I143
sS'>'
p127
I94
sS'B'
p128
I50
sS'\xc5'
p129
I112
sS'F'
p130
I63
sS'\xc9'
p131
I188
sS'J'
p132
I59
sS'N'
p133
I41
sS'\xd1'
p134
I171
sS'R'
p135
I43
sS'V'
p136
I62
sS'\xd9'
p137
I144
sS'Z'
p138
I67
sS'\xdd'
p139
I198
sS'^'
p140
I89
sS'\xe1'
p141
I135
sS'b'
p142
I26
sS'\xe5'
p143
I153
sS'f'
p144
I33
sS'\xe9'
p145
I172
sS'j'
p146
I31
sS'\xed'
p147
I175
sS'n'
p148
I7
sS'\xf1'
p149
I119
sS'r'
p150
I8
sS'v'
p151
I32
sS'\xf9'
p152
I199
sS'z'
p153
I35
sS'\xfd'
p154
I200
sS'~'
p155
I87
sS'\x82'
p156
I130
sS'\x86'
p157
I181
sS'\x8a'
p158
I176
sS'\x8e'
p159
I189
sS'\x92'
p160
I190
sS'\x96'
p161
I133
sS'\x9e'
p162
I177
sS'!'
p163
I55
sS'\xa2'
p164
I137
sS'%'
p165
I84
sS'\xa6'
p166
I127
sS')'
p167
I80
sS'\xaa'
p168
I145
sS'-'
p169
I64
sS'\xae'
p170
I146
sS'1'
p171
I4
sS'\xb2'
p172
I131
sS'5'
p173
I19
sS'\xb6'
p174
I104
sS'9'
p175
I17
sS'\xba'
p176
I120
sS'='
p177
I78
sS'\xbe'
p178
I139
sS'A'
p179
I36
sS'\xc2'
p180
I95
sS'E'
p181
I38
sS'\xc6'
p182
I182
sS'I'
p183
I39
sS'M'
p184
I45
sS'\xce'
p185
I159
sS'Q'
p186
I73
sS'\xd2'
p187
I201
sS'U'
p188
I56
sS'\xd6'
p189
I202
sS'Y'
p190
I51
sS']'
p191
I86
sS'a'
p192
I2
sS'\xe2'
p193
I114
sS'e'
p194
I3
sS'\xe6'
p195
I152
sS'i'
p196
I5
sS'\xea'
p197
I203
sS'm'
p198
I14
sS'\xee'
p199
I204
sS'q'
p200
I46
sS'u'
p201
I24
sS'\xf6'
p202
I164
sS'y'
p203
I18
sS'\xfa'
p204
I173
sS'}'
p205
I98
s.